; Function Attrs: mustprogress uwtable
define hidden void @_ZN17algebraic_numbers7manager3setERNS_4anumERK3mpz(ptr noundef nonnull readonly align 8 captures(none) dereferenceable(17) %0, ptr noundef nonnull align 8 dereferenceable(8) %1, ptr noundef nonnull align 8 dereferenceable(16) %2) local_unnamed_addr #3 align 2 personality ptr @__gxx_personality_v0 {
  %4 = alloca %class._scoped_numeral.9, align 8
  call void @llvm.lifetime.start.p0(i64 40, ptr nonnull %4) #29
  %5 = load ptr, ptr %0, align 8, !tbaa !12
  %6 = getelementptr inbounds nuw i8, ptr %5, i64 24
  %7 = load ptr, ptr %6, align 8, !tbaa !65
  store ptr %7, ptr %4, align 8, !tbaa !18
  %8 = getelementptr inbounds nuw i8, ptr %4, i64 8
  store i32 0, ptr %8, align 8, !tbaa !22
  %9 = getelementptr inbounds nuw i8, ptr %4, i64 12
  store i8 0, ptr %9, align 4
  %10 = getelementptr inbounds nuw i8, ptr %4, i64 16
  store ptr null, ptr %10, align 8, !tbaa !26
  %11 = getelementptr inbounds nuw i8, ptr %4, i64 24
  store i32 1, ptr %11, align 8, !tbaa !22
  %12 = getelementptr inbounds nuw i8, ptr %4, i64 28
  store i8 0, ptr %12, align 4
  %13 = getelementptr inbounds nuw i8, ptr %4, i64 32
  store ptr null, ptr %13, align 8, !tbaa !26
  %14 = getelementptr inbounds nuw i8, ptr %2, i64 4
  %15 = load i8, ptr %14, align 4
  %16 = and i8 %15, 1
  %17 = icmp eq i8 %16, 0
  br i1 %17, label %18, label %20

18:                                               ; preds = %3
  %19 = load i32, ptr %2, align 8, !tbaa !22
  store i32 %19, ptr %8, align 8, !tbaa !22
  store i8 0, ptr %9, align 4
  br label %_ZN11mpz_managerILb0EE3setER3mpzRKS1_.exit.i

20:                                               ; preds = %3
  invoke void @_ZN11mpz_managerILb0EE7big_setER3mpzRKS1_(ptr noundef nonnull align 8 dereferenceable(728) %7, ptr noundef nonnull align 8 dereferenceable(32) %8, ptr noundef nonnull align 8 dereferenceable(16) %2)
          to label %_ZN11mpz_managerILb0EE3setER3mpzRKS1_.exit.i unwind label %29

_ZN11mpz_managerILb0EE3setER3mpzRKS1_.exit.i:     ; preds = %20, %18
  invoke void @_ZN11mpz_managerILb0EE3delEPS0_R3mpz(ptr noundef nonnull align 8 dereferenceable(728) %7, ptr noundef nonnull align 8 dereferenceable(16) %11)
          to label %21 unwind label %29

21:                                               ; preds = %_ZN11mpz_managerILb0EE3setER3mpzRKS1_.exit.i
  store i32 1, ptr %11, align 8, !tbaa !22
  %22 = load i8, ptr %12, align 4
  %23 = and i8 %22, -2
  store i8 %23, ptr %12, align 4
  %24 = load ptr, ptr %0, align 8, !tbaa !12
  invoke void @_ZN17algebraic_numbers7manager3imp3setERNS_4anumERK3mpq(ptr noundef nonnull align 8 dereferenceable(936) %24, ptr noundef nonnull align 8 dereferenceable(8) %1, ptr noundef nonnull align 8 dereferenceable(32) %8)
          to label %_ZN17algebraic_numbers7manager3setERNS_4anumERK3mpq.exit unwind label %29

_ZN17algebraic_numbers7manager3setERNS_4anumERK3mpq.exit: ; preds = %21
  %25 = load ptr, ptr %4, align 8, !tbaa !73
  invoke void @_ZN11mpz_managerILb0EE3delEPS0_R3mpz(ptr noundef nonnull align 8 dereferenceable(728) %25, ptr noundef nonnull align 8 dereferenceable(32) %8)
          to label %.noexc.i unwind label %26

.noexc.i:                                         ; preds = %_ZN17algebraic_numbers7manager3setERNS_4anumERK3mpq.exit
  invoke void @_ZN11mpz_managerILb0EE3delEPS0_R3mpz(ptr noundef nonnull align 8 dereferenceable(728) %25, ptr noundef nonnull align 8 dereferenceable(16) %11)
          to label %_ZN15_scoped_numeralI11mpq_managerILb0EEED2Ev.exit unwind label %26

26:                                               ; preds = %.noexc.i, %_ZN17algebraic_numbers7manager3setERNS_4anumERK3mpq.exit
  %27 = landingpad { ptr, i32 }
          catch ptr null
  %28 = extractvalue { ptr, i32 } %27, 0
  call void @__clang_call_terminate(ptr %28) #30
  unreachable

_ZN15_scoped_numeralI11mpq_managerILb0EEED2Ev.exit: ; preds = %.noexc.i
  call void @llvm.lifetime.end.p0(i64 40, ptr nonnull %4) #29
  ret void

29:                                               ; preds = %21, %_ZN11mpz_managerILb0EE3setER3mpzRKS1_.exit.i, %20
  %30 = landingpad { ptr, i32 }
          cleanup
  call void @_ZN15_scoped_numeralI11mpq_managerILb0EEED2Ev(ptr noundef nonnull align 8 dereferenceable(40) %4) #29
  call void @llvm.lifetime.end.p0(i64 40, ptr nonnull %4) #29
  resume { ptr, i32 } %30
}